(lp0
S'Abecean Longfin'
p1
aS'Bear Claws'
p2
aS'Bee'
p3
aS'Beehive Husk'
p4
aS"Berit's Ashes"
p5
aS'Bleeding Crown'
p6
aS'Blisterwort'
p7
aS'Blue Butterfly Wing'
p8
aS'Blue Dartwing'
p9
aS'Blue Mountain Flower'
p10
aS'Bone Meal'
p11
aS'Briar Heart'
p12
aS'Butterfly Wing'
p13
aS'Canis Root'
p14
aS'Charred Skeever Hide'
p15
aS'Chaurus Eggs'
p16
aS"Chicken's Egg"
p17
aS'Creep Cluster'
p18
aS'Crimson Nirnroot'
p19
aS'Cyrodilic Spadetail'
p20
aS'Daedra Heart'
p21
aS'Deathbell'
p22
aS"Dragon's Tongue"
p23
aS'Dwarven Oil'
p24
aS'Ectoplasm'
p25
aS'Elves Ear'
p26
aS'Eye of Sabre Cat'
p27
aS'Falmer Ear'
p28
aS'Fire Salts'
p29
aS'Fly Amanita'
p30
aS'Frost Mirriam'
p31
aS'Frost Salts'
p32
aS'Garlic'
p33
aS'Giant Lichen'
p34
aS"Giant's Toe"
p35
aS'Glow Dust'
p36
aS'Glowing Mushroom'
p37
aS'Grass Pod'
p38
aS'Hagraven Claw'
p39
aS'Hagraven Feathers'
p40
aS'Hanging Moss'
p41
aS'Hawk Beak'
p42
aS'Hawk Feathers'
p43
aS'Histcarp'
p44
aS'Honeycomb'
p45
aS'Human Flesh'
p46
aS'Human Heart'
p47
aS'Ice Wraith Teeth'
p48
aS'Imp Stool'
p49
aS'Jazbay Grapes'
p50
aS'Juniper Berries'
p51
aS'Large Antlers'
p52
aS'Lavender'
p53
aS'Luna Moth Wing'
p54
aS'Moon Sugar'
p55
aS'Mora Tapinella'
p56
aS'Mudcrab Chitin'
p57
aS"Namira's Rot"
p58
aS'Nightshade'
p59
aS'Nirnroot'
p60
aS'Nordic Barnacle'
p61
aS'Orange Dartwing'
p62
aS'Pearl'
p63
aS'Pine Thrush Egg'
p64
aS'Powdered Mammoth Tusk'
p65
aS'Purple Mountain Flower'
p66
aS'Red Mountain Flower'
p67
aS'River Betty'
p68
aS'Rock Warbler Egg'
p69
aS'Sabre Cat Tooth'
p70
aS'Salt Pile'
p71
aS'Scaly Pholiota'
p72
aS'Silverside Perch'
p73
aS'Skeever Tail'
p74
aS'Slaughterfish Egg'
p75
aS'Slaughterfish Scales'
p76
aS'Small Antlers'
p77
aS'Small Pearl'
p78
aS'Snowberries'
p79
aS'Spider Egg'
p80
aS'Spriggan Sap'
p81
aS'Swamp Fungal Pod'
p82
aS'Taproot'
p83
aS'Thistle Branch'
p84
aS'Torchbug Thorax'
p85
aS'Troll Fat'
p86
aS'Tundra Cotton'
p87
aS'Vampire Dust'
p88
aS'Void Salts'
p89
aS'Wheat'
p90
aS'White Cap'
p91
aS'Wisp Wrappings'
p92
aS'not needed'
p93
a.